MPASM 5.77                            P3.ASM   11-27-2020  2:09:01         PAGE  1


LOC  OBJECT CODE     LINE SOURCE TEXT
  VALUE

                      00001 ; TODO INSERT CONFIG CODE HERE USING CONFIG BITS GENERATOR
                      00002   #include "p16f887.inc"
                      00001         LIST
                      00002 
                      00003 ;==========================================================================
                      00004 ; Build date : Nov 22 2017
                      00005 ;  MPASM PIC16F887 processor include
                      00006 ; 
                      00007 ;  (c) Copyright 1999-2017 Microchip Technology, All rights reserved
                      00008 ;==========================================================================
                      00009 
                      00810         LIST
                      00003 
                      00004 ; CONFIG1
                      00005 ; __config 0xE0D4
2007   20D4           00006  __CONFIG _CONFIG1, _FOSC_INTRC_NOCLKOUT & _WDTE_OFF & _PWRTE_OFF & _MCLRE_OFF & _CP_OFF & _CPD_OFF & _B
                            OREN_OFF & _IESO_OFF & _FCMEN_OFF & _LVP_OFF
                      00007 ; CONFIG2
                      00008 ; __config 0xFFFF
2008   3FFF           00009  __CONFIG _CONFIG2, _BOR4V_BOR40V & _WRT_OFF
                      00010 ;*******************************************************************************
                      00011 ;VARIABLES
                      00012 ;*******************************************************************************    
                      00013 PR_VAR        UDATA
0000                  00014 SERV1         RES 1
0001                  00015 SERV2         RES 1
0002                  00016 SERV3         RES 1
0003                  00017 FLAGS         RES 1
0004                  00018 W_TEMP        RES 1 
0005                  00019 STATUS_TEMP   RES 1
                      00020               
                      00021               
                      00022         
                      00023         
                      00024 ;******************************************************************************
                      00025 ; INICIO
                      00026 ;******************************************************************************
                      00027 RES_VECT  CODE    0x0000            ; processor reset vector
0000   2???           00028     GOTO    START                   ; go to beginning of program
                      00029 ;*******************************************************************************
                      00030 ; TODO ADD INTERRUPTS HERE IF USED
                      00031 ;*******************************************************************************
Warning[207]: Found label after column 1. (ISR_VECT)
                      00032     ISR_VECT    CODE    0x0004
                      00033     
0004                  00034 PUSH:
0004   138B           00035     BCF     INTCON,  GIE
0005   00??           00036     MOVWF   W_TEMP
0006   0E03           00037     SWAPF   STATUS, W
0007   00??           00038     MOVWF   STATUS_TEMP  ;MANDO AL STACK
                      00039     
                      00040     
0008                  00041 ISR:
MPASM 5.77                            P3.ASM   11-27-2020  2:09:01         PAGE  2


LOC  OBJECT CODE     LINE SOURCE TEXT
  VALUE

                      00042 ;    BTFSC   INTCON, T0IF                  
                      00043 ;    CALL    RUT_TMR0 
0008   180C           00044     BTFSC   PIR1, TMR1IF    ;SE REVISA LA BANDERA DE INTERRUPCION
0009   2???           00045     CALL    RUT_TMR1        ; SI NO ESTA EN CERO LLAMA LA RUTINA
000A   1B0C           00046     BTFSC   PIR1, ADIF
000B   2???           00047     CALL    RUT_ADC
                      00048   
                      00049     
                      00050    
000C                  00051 POP:
000C   0E??           00052     SWAPF   STATUS_TEMP, W
000D   0083           00053     MOVWF   STATUS
000E   0E??           00054     SWAPF   W_TEMP, F
000F   0E??           00055     SWAPF   W_TEMP, W
0010   178B           00056     BSF     INTCON, GIE ;SACO INFO DEL STACK
0011   0009           00057     RETFIE
                      00058 
                      00059 
                      00060 
                      00061 ;******************************************************************************
                      00062 ; SUBRUTINAS INT
                      00063 ;******************************************************************************
                      00064 ;    RUT_TMR0:
                      00065 ;         MOVLW   .248
                      00066 ;        MOVWF   TMR0        
                      00067 ;        BCF     INTCON, T0IF 
                      00068 ;    RETURN
                      00069    
Warning[207]: Found label after column 1. (RUT_TMR1)
0012                  00070     RUT_TMR1: 
                      00071     
0012   30F8           00072         MOVLW   .248        ;SE CARGAN VALORES AL TIMER1 PARA QUE EL TIEMPO SEA DE 500ms
0013   008F           00073         MOVWF   TMR1H
0014   302F           00074         MOVLW   .47         
0015   008E           00075         MOVWF   TMR1L           
0016   100C           00076         BCF     PIR1, TMR1IF    ;SE REINICIAN LAS CONDICIONES INICIALES DEL TIMER
                      00077         
                      00078         
Warning[207]: Found label after column 1. (MAPEO)
0017                  00079         MAPEO:
0017   0C??           00080          RRF     SERV1, W
0018   397F           00081          ANDLW   b'01111111'
0019   3E20           00082          ADDLW   .32
001A   0095           00083          MOVWF   CCPR1L
001B   0C??           00084          RRF     SERV2, W
001C   397F           00085          ANDLW   b'01111111'
001D   3E20           00086          ADDLW   .32
001E   009B           00087          MOVWF   CCPR2L
001F   0008           00088          RETURN
                      00089 
                      00090     
                      00091         
                      00092 
MPASM 5.77                            P3.ASM   11-27-2020  2:09:01         PAGE  3


LOC  OBJECT CODE     LINE SOURCE TEXT
  VALUE

Warning[207]: Found label after column 1. (RUT_ADC)
0020                  00093     RUT_ADC:
0020   1800           00094         BTFSC   FLAGS, 0
0021   2???           00095         GOTO    SERVO2
                      00096         
Warning[207]: Found label after column 1. (SERVO1)
0022                  00097     SERVO1:
0022   1283 1303      00098         BANKSEL ADCON0
0024   151F           00099         BSF     ADCON0, 2
0025   119F           00100         BCF     ADCON0, 3
0026   121F           00101         BCF     ADCON0, 4
0027   129F           00102         BCF     ADCON0, 5
0028   081E           00103         MOVFW   ADRESH 
0029   00??           00104         MOVWF   SERV1
002A   130C           00105         BCF     PIR1, ADIF
002B   149F           00106         BSF     ADCON0, 1
002C   1400           00107         BSF     FLAGS, 0
002D   0008           00108      RETURN
                      00109     
Warning[207]: Found label after column 1. (SERVO2)
002E                  00110     SERVO2:
002E   1283 1303      00111         BANKSEL ADCON0
0030   111F           00112         BCF     ADCON0, 2
0031   119F           00113         BCF     ADCON0, 3
0032   121F           00114         BCF     ADCON0, 4
0033   129F           00115         BCF     ADCON0, 5
0034   081E           00116         MOVFW   ADRESH 
0035   00??           00117         MOVWF   SERV2
0036   130C           00118         BCF     PIR1, ADIF
0037   149F           00119         BSF     ADCON0, 1
0038   1000           00120         BCF     FLAGS, 0
0039   0008           00121      RETURN
                      00122         
                      00123     
                      00124      
                      00125      
                      00126 
                      00127 ;******************************************************************************
                      00128 ;PRINCIPAL
                      00129 ;*******************************************************************************
                      00130 MAIN_PROG CODE      0x0100             ; let linker place main program
0100                  00131 START
                      00132  
0100   2???           00133  CALL CONFIG_IO
0101   2???           00134  CALL CONFIG_ADC
0102   2???           00135  CALL CONFIG_TMR2
0103   2???           00136  CALL CONFIG_TMR1
0104   2???           00137  CALL CONFIG_INT
0105   2???           00138  CALL CONFIG_CCP1
0106   2???           00139  CALL CONFIG_CCP2
0107   2???           00140  CALL CONFIG_TMR0
                      00141  
0108                  00142 LOOP:
MPASM 5.77                            P3.ASM   11-27-2020  2:09:01         PAGE  4


LOC  OBJECT CODE     LINE SOURCE TEXT
  VALUE

                      00143     
                      00144     
0108   2???           00145     GOTO LOOP     
                      00146     
                      00147     
                      00148 
                      00149 
                      00150   
                      00151     
                      00152 ;*******************************************************************************
                      00153 ; CONFIGURACIONES
                      00154 ;*******************************************************************************
                      00155 
0109                  00156 CONFIG_IO:
0109   1683           00157     BSF     STATUS, 5 
010A   1303           00158     BCF     STATUS, 6 ; BANCO 1 
                      00159    
                      00160    
Message[302]: Register in operand not in bank 0.  Ensure that bank bits are correct.
010B   1405           00161     BSF     TRISA, 0
Message[302]: Register in operand not in bank 0.  Ensure that bank bits are correct.
010C   1485           00162     BSF     TRISA, 1
Message[302]: Register in operand not in bank 0.  Ensure that bank bits are correct.
010D   1505           00163     BSF     TRISA, 2
Message[302]: Register in operand not in bank 0.  Ensure that bank bits are correct.
010E   0186           00164     CLRF    TRISB ;TODOS LOS BITS DEL PUERTO C Y D EN 0, SALIDAS
Message[302]: Register in operand not in bank 0.  Ensure that bank bits are correct.
010F   0187           00165     CLRF    TRISC
Message[302]: Register in operand not in bank 0.  Ensure that bank bits are correct.
0110   0188           00166     CLRF    TRISD    
0111   1683           00167     BSF     STATUS, 5
0112   1703           00168     BSF     STATUS, 6 ;BANCO 3
                      00169     
Message[302]: Register in operand not in bank 0.  Ensure that bank bits are correct.
0113   1408           00170     BSF     ANSEL, 0 ;BIT 0 ENTRADA ANALÓGICA, LAS DEMAS DIGITALES
Message[302]: Register in operand not in bank 0.  Ensure that bank bits are correct.
0114   1488           00171     BSF     ANSEL, 1
Message[302]: Register in operand not in bank 0.  Ensure that bank bits are correct.
0115   1508           00172     BSF     ANSEL, 2
Message[302]: Register in operand not in bank 0.  Ensure that bank bits are correct.
0116   0189           00173     CLRF    ANSELH ;ENTRADAS DIGITALES
                      00174     
0117   1283           00175     BCF     STATUS, 5
0118   1303           00176     BCF     STATUS, 6; BANCO 0
                      00177     
0119   0187           00178     CLRF   PORTC
011A   0186           00179     CLRF   PORTB
011B   0188           00180     CLRF   PORTD
011C   0008           00181     RETURN
                      00182     
                      00183     
Warning[207]: Found label after column 1. (CONFIG_VAR)
011D                  00184  CONFIG_VAR:
MPASM 5.77                            P3.ASM   11-27-2020  2:09:01         PAGE  5


LOC  OBJECT CODE     LINE SOURCE TEXT
  VALUE

011D   1283 1303      00185     BANKSEL PORTA
011F   01??           00186     CLRF   SERV1
0120   01??           00187     CLRF   SERV2
0121   01??           00188     CLRF   FLAGS
                      00189     
                      00190     
0122                  00191 CONFIG_ADC:
0122   1683           00192     BSF     STATUS, 5
0123   1303           00193     BCF     STATUS, 6 ;BANCO 1
Message[302]: Register in operand not in bank 0.  Ensure that bank bits are correct.
0124   019F           00194     CLRF    ADCON1
0125   1283           00195     BCF     STATUS, 5
0126   1303           00196     BCF     STATUS, 6; BANCO 0
0127   3043           00197     MOVLW   b'01000011'
0128   009F           00198     MOVWF   ADCON0
Message[302]: Register in operand not in bank 0.  Ensure that bank bits are correct.
0129   170C           00199     BSF     PIE1, ADIE
012A   170C           00200     BSF     PIR1, ADIF
012B   0008           00201     RETURN
                      00202 
                      00203     
012C                  00204 CONFIG_TMR2:
012C   1283           00205     BCF     STATUS, 5
012D   1303           00206     BCF     STATUS, 6; BANCO 0
                      00207    
012E   3007           00208     MOVLW   B'00000111'
012F   0092           00209     MOVWF   T2CON
0130   1683           00210     BSF     STATUS, 5 
0131   1303           00211     BCF     STATUS, 6 ; BANCO 1 
Message[302]: Register in operand not in bank 0.  Ensure that bank bits are correct.
0132   148C           00212     BSF     PIE1, TMR2IE
0133   30BB           00213     MOVLW   .187    
Message[302]: Register in operand not in bank 0.  Ensure that bank bits are correct.
0134   0092           00214     MOVWF   PR2
0135   0008           00215     RETURN
                      00216     
0136                  00217 CONFIG_CCP1:
                      00218     
0136   1283 1303      00219     BANKSEL CCP1CON
0138   1397           00220     BCF     CCP1CON,   7
0139   1317           00221     BCF     CCP1CON,   6
013A   1297           00222     BCF     CCP1CON,   5
013B   1217           00223     BCF     CCP1CON,   4
013C   1597           00224     BSF     CCP1CON,   3
013D   1517           00225     BSF     CCP1CON,   2
013E   1097           00226     BCF     CCP1CON,   1
013F   1017           00227     BCF     CCP1CON,   0
0140   0008           00228  RETURN
                      00229     
0141                  00230 CONFIG_CCP2:
0141   1283 1303      00231     BANKSEL CCP2CON
0143   129D           00232     BCF     CCP2CON,   5
0144   121D           00233     BCF     CCP2CON,   4
MPASM 5.77                            P3.ASM   11-27-2020  2:09:01         PAGE  6


LOC  OBJECT CODE     LINE SOURCE TEXT
  VALUE

0145   159D           00234     BSF     CCP2CON,   3
0146   151D           00235     BSF     CCP2CON,   2
0147   149D           00236     BSF     CCP2CON,   1
0148   141D           00237     BSF     CCP2CON,   0
Warning[203]: Found opcode in column 1. (RETURN)
0149   0008           00238 RETURN
                      00239     
014A                  00240 CONFIG_TMR0:
014A   1683           00241     BSF     STATUS, 5
014B   1303           00242     BCF     STATUS, 6 ;BANCO 1
                      00243     
                      00244     
014C   3087           00245     MOVLW   b'10000111'  ;SE APAGAN LAS PULLUPS Y SE LE PONE PRESCALER DE 1:256
Message[302]: Register in operand not in bank 0.  Ensure that bank bits are correct.
014D   0081           00246     MOVWF   OPTION_REG   
                      00247    
014E   1283           00248     BCF     STATUS, 5 
014F   1303           00249     BCF     STATUS, 6
0150   110B           00250     BCF INTCON, T0IF    ;CONFIGURACIÓN DEL OVERFLOW INTERUPT FLAG
                      00251     
0151   0008           00252     RETURN
                      00253     
                      00254     
0152                  00255 CONFIG_TMR1:
0152   1283           00256     BCF     STATUS, 5
0153   1303           00257     BCF     STATUS, 6; BANCO 0
                      00258     
0154   0190           00259     CLRF    T1CON
0155   1290           00260     BCF     T1CON, T1CKPS1
0156   1210           00261     BCF     T1CON, T1CKPS0  ;PRESCALER DE 1:8
0157   1410           00262     BSF     T1CON, TMR1ON  ;TIMER 1 ENCENDIDO
0158   100C           00263     BCF     PIR1, TMR1IF   ;SE APAGA LA BANDERA DE INTERRUPCION
                      00264     
0159   0008           00265     RETURN
                      00266     
                      00267     
015A                  00268 CONFIG_TX:
015A   1683           00269     BSF     STATUS, 5
015B   1303           00270     BCF     STATUS, 6 ;BANCO 1
                      00271     
                      00272     ;BSF     PIE1, TXIE
Message[302]: Register in operand not in bank 0.  Ensure that bank bits are correct.
015C   1218           00273     BCF     TXSTA, SYNC
Message[302]: Register in operand not in bank 0.  Ensure that bank bits are correct.
015D   1518           00274     BSF     TXSTA, BRGH
Message[302]: Register in operand not in bank 0.  Ensure that bank bits are correct.
015E   1698           00275     BSF     TXSTA, TXEN
                      00276     
015F   1683 1703      00277     BANKSEL  BAUDCTL
Message[302]: Register in operand not in bank 0.  Ensure that bank bits are correct.
0161   1187           00278     BCF      BAUDCTL, BRG16
                      00279     
0162   1683 1303      00280     BANKSEL  SPBRG
MPASM 5.77                            P3.ASM   11-27-2020  2:09:01         PAGE  7


LOC  OBJECT CODE     LINE SOURCE TEXT
  VALUE

0164   3019           00281     MOVLW    .25
Message[302]: Register in operand not in bank 0.  Ensure that bank bits are correct.
0165   0099           00282     MOVWF    SPBRG
Message[302]: Register in operand not in bank 0.  Ensure that bank bits are correct.
0166   019A           00283     CLRF     SPBRGH  ;BAUD
0167   0008           00284     RETURN
                      00285     
                      00286     
0168                  00287 CONFIG_RX:
0168   1283           00288     BCF     STATUS, 5
0169   1303           00289     BCF     STATUS, 6; BANCO 0
                      00290     
016A   1798           00291     BSF     RCSTA, SPEN
016B   1318           00292     BCF     RCSTA, RX9
016C   1618           00293     BSF     RCSTA, CREN
016D   1683 1303      00294     BANKSEL PIE1
Message[302]: Register in operand not in bank 0.  Ensure that bank bits are correct.
016F   168C           00295     BSF     PIE1, RCIE
0170   0008           00296     RETURN
                      00297     
                      00298     
                      00299     
                      00300         
0171                  00301 CONFIG_INT:
0171   1283           00302     BCF     STATUS, 5
0172   1303           00303     BCF     STATUS, 6; BANCO 0
0173   178B           00304     BSF     INTCON, GIE
0174   170B           00305     BSF     INTCON, PEIE
0175   168B           00306     BSF     INTCON, T0IE
0176   108C           00307     BCF     PIR1, TMR2IF
0177   0008           00308     RETURN
                      00309     
20D4 3FFF             00310     END
MPASM 5.77                            P3.ASM   11-27-2020  2:09:01         PAGE  8


SYMBOL TABLE
  LABEL                             VALUE 

ABDEN                             00000000
ABDOVF                            00000007
ACKDT                             00000005
ACKEN                             00000004
ACKSTAT                           00000006
ADCON0                            0000001F
ADCON1                            0000009F
ADCS0                             00000006
ADCS1                             00000007
ADDEN                             00000003
ADFM                              00000007
ADIE                              00000006
ADIF                              00000006
ADON                              00000000
ADRESH                            0000001E
ADRESL                            0000009E
ANS0                              00000000
ANS1                              00000001
ANS10                             00000002
ANS11                             00000003
ANS12                             00000004
ANS13                             00000005
ANS2                              00000002
ANS3                              00000003
ANS4                              00000004
ANS5                              00000005
ANS6                              00000006
ANS7                              00000007
ANS8                              00000000
ANS9                              00000001
ANSEL                             00000188
ANSELH                            00000189
BAUDCTL                           00000187
BCLIE                             00000003
BCLIF                             00000003
BF                                00000000
BRG0                              00000000
BRG1                              00000001
BRG10                             00000002
BRG11                             00000003
BRG12                             00000004
BRG13                             00000005
BRG14                             00000006
BRG15                             00000007
BRG16                             00000003
BRG2                              00000002
BRG3                              00000003
BRG4                              00000004
BRG5                              00000005
BRG6                              00000006
BRG7                              00000007
BRG8                              00000000
BRG9                              00000001
MPASM 5.77                            P3.ASM   11-27-2020  2:09:01         PAGE  9


SYMBOL TABLE
  LABEL                             VALUE 

BRGH                              00000002
C                                 00000000
C1CH0                             00000000
C1CH1                             00000001
C1IE                              00000005
C1IF                              00000005
C1OE                              00000005
C1ON                              00000007
C1OUT                             00000006
C1POL                             00000004
C1R                               00000002
C1RSEL                            00000005
C1SEN                             00000005
C2CH0                             00000000
C2CH1                             00000001
C2IE                              00000006
C2IF                              00000006
C2OE                              00000005
C2ON                              00000007
C2OUT                             00000006
C2POL                             00000004
C2R                               00000002
C2REN                             00000004
C2RSEL                            00000004
C2SYNC                            00000000
CCP1CON                           00000017
CCP1IE                            00000002
CCP1IF                            00000002
CCP1M0                            00000000
CCP1M1                            00000001
CCP1M2                            00000002
CCP1M3                            00000003
CCP1X                             00000005
CCP1Y                             00000004
CCP2CON                           0000001D
CCP2IE                            00000000
CCP2IF                            00000000
CCP2M0                            00000000
CCP2M1                            00000001
CCP2M2                            00000002
CCP2M3                            00000003
CCP2X                             00000005
CCP2Y                             00000004
CCPR1                             00000015
CCPR1H                            00000016
CCPR1L                            00000015
CCPR2                             0000001B
CCPR2H                            0000001C
CCPR2L                            0000001B
CHS0                              00000002
CHS1                              00000003
CHS2                              00000004
CHS3                              00000005
MPASM 5.77                            P3.ASM   11-27-2020  2:09:01         PAGE 10


SYMBOL TABLE
  LABEL                             VALUE 

CKE                               00000006
CKP                               00000004
CM1CON0                           00000107
CM2CON0                           00000108
CM2CON1                           00000109
CONFIG_ADC                        00000122
CONFIG_CCP1                       00000136
CONFIG_CCP2                       00000141
CONFIG_INT                        00000171
CONFIG_IO                         00000109
CONFIG_RX                         00000168
CONFIG_TMR0                       0000014A
CONFIG_TMR1                       00000152
CONFIG_TMR2                       0000012C
CONFIG_TX                         0000015A
CONFIG_VAR                        0000011D
CREN                              00000004
CSRC                              00000007
D                                 00000005
DATA_ADDRESS                      00000005
DC                                00000001
DC1B0                             00000004
DC1B1                             00000005
DC2B0                             00000004
DC2B1                             00000005
D_A                               00000005
D_NOT_A                           00000005
ECCPAS                            0000009C
ECCPAS0                           00000004
ECCPAS1                           00000005
ECCPAS2                           00000006
ECCPASE                           00000007
EEADR                             0000010D
EEADRH                            0000010F
EECON1                            0000018C
EECON2                            0000018D
EEDAT                             0000010C
EEDATA                            0000010C
EEDATH                            0000010E
EEIE                              00000004
EEIF                              00000004
EEPGD                             00000007
F                                 00000001
FERR                              00000002
FLAGS                             00000003
FSR                               00000004
FVREN                             00000000
GCEN                              00000007
GIE                               00000007
GO                                00000001
GO_DONE                           00000001
GO_NOT_DONE                       00000001
HTS                               00000002
MPASM 5.77                            P3.ASM   11-27-2020  2:09:01         PAGE 11


SYMBOL TABLE
  LABEL                             VALUE 

I2C_DATA                          00000005
I2C_READ                          00000002
I2C_START                         00000003
I2C_STOP                          00000004
INDF                              00000000
INTCON                            0000000B
INTE                              00000004
INTEDG                            00000006
INTF                              00000001
IOCB                              00000096
IOCB0                             00000000
IOCB1                             00000001
IOCB2                             00000002
IOCB3                             00000003
IOCB4                             00000004
IOCB5                             00000005
IOCB6                             00000006
IOCB7                             00000007
IRCF0                             00000004
IRCF1                             00000005
IRCF2                             00000006
IRP                               00000007
ISR                               00000008
LOOP                              00000108
LTS                               00000001
MAPEO                             00000017
MC1OUT                            00000007
MC2OUT                            00000006
MSK                               00000093
MSK0                              00000000
MSK1                              00000001
MSK2                              00000002
MSK3                              00000003
MSK4                              00000004
MSK5                              00000005
MSK6                              00000006
MSK7                              00000007
NOT_A                             00000005
NOT_ADDRESS                       00000005
NOT_BO                            00000000
NOT_BOR                           00000000
NOT_DONE                          00000001
NOT_PD                            00000003
NOT_POR                           00000001
NOT_RBPU                          00000007
NOT_RC8                           00000006
NOT_T1SYNC                        00000002
NOT_TO                            00000004
NOT_TX8                           00000006
NOT_W                             00000002
NOT_WRITE                         00000002
OERR                              00000001
OPTION_REG                        00000081
MPASM 5.77                            P3.ASM   11-27-2020  2:09:01         PAGE 12


SYMBOL TABLE
  LABEL                             VALUE 

OSCCON                            0000008F
OSCTUNE                           00000090
OSFIE                             00000007
OSFIF                             00000007
OSTS                              00000003
P                                 00000004
P1M0                              00000006
P1M1                              00000007
PCL                               00000002
PCLATH                            0000000A
PCON                              0000008E
PDC0                              00000000
PDC1                              00000001
PDC2                              00000002
PDC3                              00000003
PDC4                              00000004
PDC5                              00000005
PDC6                              00000006
PEIE                              00000006
PEN                               00000002
PIE1                              0000008C
PIE2                              0000008D
PIR1                              0000000C
PIR2                              0000000D
POP                               0000000C
PORTA                             00000005
PORTB                             00000006
PORTC                             00000007
PORTD                             00000008
PORTE                             00000009
PR2                               00000092
PRSEN                             00000007
PS0                               00000000
PS1                               00000001
PS2                               00000002
PSA                               00000003
PSSAC0                            00000002
PSSAC1                            00000003
PSSBD0                            00000000
PSSBD1                            00000001
PSTRCON                           0000009D
PULSR                             00000002
PULSS                             00000003
PUSH                              00000004
PWM1CON                           0000009B
R                                 00000002
RA0                               00000000
RA1                               00000001
RA2                               00000002
RA3                               00000003
RA4                               00000004
RA5                               00000005
RA6                               00000006
MPASM 5.77                            P3.ASM   11-27-2020  2:09:01         PAGE 13


SYMBOL TABLE
  LABEL                             VALUE 

RA7                               00000007
RB0                               00000000
RB1                               00000001
RB2                               00000002
RB3                               00000003
RB4                               00000004
RB5                               00000005
RB6                               00000006
RB7                               00000007
RBIE                              00000003
RBIF                              00000000
RC0                               00000000
RC1                               00000001
RC2                               00000002
RC3                               00000003
RC4                               00000004
RC5                               00000005
RC6                               00000006
RC7                               00000007
RC8_9                             00000006
RC9                               00000006
RCD8                              00000000
RCEN                              00000003
RCIDL                             00000006
RCIE                              00000005
RCIF                              00000005
RCREG                             0000001A
RCSTA                             00000018
RD                                00000000
RD0                               00000000
RD1                               00000001
RD2                               00000002
RD3                               00000003
RD4                               00000004
RD5                               00000005
RD6                               00000006
RD7                               00000007
RE0                               00000000
RE1                               00000001
RE2                               00000002
RE3                               00000003
READ_WRITE                        00000002
RP0                               00000005
RP1                               00000006
RSEN                              00000001
RUT_ADC                           00000020
RUT_TMR1                          00000012
RX9                               00000006
RX9D                              00000000
R_NOT_W                           00000002
R_W                               00000002
S                                 00000003
SBOREN                            00000004
MPASM 5.77                            P3.ASM   11-27-2020  2:09:01         PAGE 14


SYMBOL TABLE
  LABEL                             VALUE 

SCKP                              00000004
SCS                               00000000
SEN                               00000000
SENDB                             00000003
SERV1                             00000000
SERV2                             00000001
SERV3                             00000002
SERVO1                            00000022
SERVO2                            0000002E
SMP                               00000007
SPBRG                             00000099
SPBRGH                            0000009A
SPEN                              00000007
SR0                               00000006
SR1                               00000007
SRCON                             00000185
SREN                              00000005
SSPADD                            00000093
SSPBUF                            00000013
SSPCON                            00000014
SSPCON2                           00000091
SSPEN                             00000005
SSPIE                             00000003
SSPIF                             00000003
SSPM0                             00000000
SSPM1                             00000001
SSPM2                             00000002
SSPM3                             00000003
SSPMSK                            00000093
SSPOV                             00000006
SSPSTAT                           00000094
START                             00000100
STATUS                            00000003
STATUS_TEMP                       00000005
STRA                              00000000
STRB                              00000001
STRC                              00000002
STRD                              00000003
STRSYNC                           00000004
SWDTEN                            00000000
SYNC                              00000004
T0CS                              00000005
T0IE                              00000005
T0IF                              00000002
T0SE                              00000004
T1CKPS0                           00000004
T1CKPS1                           00000005
T1CON                             00000010
T1GINV                            00000007
T1GIV                             00000007
T1GSS                             00000001
T1INSYNC                          00000002
T1OSCEN                           00000003
MPASM 5.77                            P3.ASM   11-27-2020  2:09:01         PAGE 15


SYMBOL TABLE
  LABEL                             VALUE 

T1SYNC                            00000002
T2CKPS0                           00000000
T2CKPS1                           00000001
T2CON                             00000012
TMR0                              00000001
TMR0IE                            00000005
TMR0IF                            00000002
TMR1                              0000000E
TMR1CS                            00000001
TMR1GE                            00000006
TMR1H                             0000000F
TMR1IE                            00000000
TMR1IF                            00000000
TMR1L                             0000000E
TMR1ON                            00000000
TMR2                              00000011
TMR2IE                            00000001
TMR2IF                            00000001
TMR2ON                            00000002
TOUTPS0                           00000003
TOUTPS1                           00000004
TOUTPS2                           00000005
TOUTPS3                           00000006
TRISA                             00000085
TRISA0                            00000000
TRISA1                            00000001
TRISA2                            00000002
TRISA3                            00000003
TRISA4                            00000004
TRISA5                            00000005
TRISA6                            00000006
TRISA7                            00000007
TRISB                             00000086
TRISB0                            00000000
TRISB1                            00000001
TRISB2                            00000002
TRISB3                            00000003
TRISB4                            00000004
TRISB5                            00000005
TRISB6                            00000006
TRISB7                            00000007
TRISC                             00000087
TRISC0                            00000000
TRISC1                            00000001
TRISC2                            00000002
TRISC3                            00000003
TRISC4                            00000004
TRISC5                            00000005
TRISC6                            00000006
TRISC7                            00000007
TRISD                             00000088
TRISD0                            00000000
TRISD1                            00000001
MPASM 5.77                            P3.ASM   11-27-2020  2:09:01         PAGE 16


SYMBOL TABLE
  LABEL                             VALUE 

TRISD2                            00000002
TRISD3                            00000003
TRISD4                            00000004
TRISD5                            00000005
TRISD6                            00000006
TRISD7                            00000007
TRISE                             00000089
TRISE0                            00000000
TRISE1                            00000001
TRISE2                            00000002
TRISE3                            00000003
TRMT                              00000001
TUN0                              00000000
TUN1                              00000001
TUN2                              00000002
TUN3                              00000003
TUN4                              00000004
TX8_9                             00000006
TX9                               00000006
TX9D                              00000000
TXD8                              00000000
TXEN                              00000005
TXIE                              00000004
TXIF                              00000004
TXREG                             00000019
TXSTA                             00000098
UA                                00000001
ULPWUE                            00000005
ULPWUIE                           00000002
ULPWUIF                           00000002
VCFG0                             00000004
VCFG1                             00000005
VR0                               00000000
VR1                               00000001
VR2                               00000002
VR3                               00000003
VRCON                             00000097
VREN                              00000007
VROE                              00000006
VRR                               00000005
VRSS                              00000004
W                                 00000000
WCOL                              00000007
WDTCON                            00000105
WDTPS0                            00000001
WDTPS1                            00000002
WDTPS2                            00000003
WDTPS3                            00000004
WPUB                              00000095
WPUB0                             00000000
WPUB1                             00000001
WPUB2                             00000002
WPUB3                             00000003
MPASM 5.77                            P3.ASM   11-27-2020  2:09:01         PAGE 17


SYMBOL TABLE
  LABEL                             VALUE 

WPUB4                             00000004
WPUB5                             00000005
WPUB6                             00000006
WPUB7                             00000007
WR                                00000001
WREN                              00000002
WRERR                             00000003
WUE                               00000001
W_TEMP                            00000004
Z                                 00000002
_BOR21V                           00003EFF
_BOR40V                           00003FFF
_BOR4V_BOR21V                     00003EFF
_BOR4V_BOR40V                     00003FFF
_BOREN_NSLEEP                     00003EFF
_BOREN_OFF                        00003CFF
_BOREN_ON                         00003FFF
_BOREN_SBODEN                     00003DFF
_BOR_NSLEEP                       00003EFF
_BOR_OFF                          00003CFF
_BOR_ON                           00003FFF
_BOR_SBODEN                       00003DFF
_CONFIG1                          00002007
_CONFIG2                          00002008
_CPD_OFF                          00003FFF
_CPD_ON                           00003F7F
_CP_OFF                           00003FFF
_CP_ON                            00003FBF
_DEBUG_OFF                        00003FFF
_DEBUG_ON                         00001FFF
_DEVID1                           00002006
_EC_OSC                           00003FFB
_EXTRC                            00003FFF
_EXTRCIO                          00003FFE
_EXTRC_OSC_CLKOUT                 00003FFF
_EXTRC_OSC_NOCLKOUT               00003FFE
_FCMEN_OFF                        000037FF
_FCMEN_ON                         00003FFF
_FOSC_EC                          00003FFB
_FOSC_EXTRC_CLKOUT                00003FFF
_FOSC_EXTRC_NOCLKOUT              00003FFE
_FOSC_HS                          00003FFA
_FOSC_INTRC_CLKOUT                00003FFD
_FOSC_INTRC_NOCLKOUT              00003FFC
_FOSC_LP                          00003FF8
_FOSC_XT                          00003FF9
_HS_OSC                           00003FFA
_IDLOC0                           00002000
_IDLOC1                           00002001
_IDLOC2                           00002002
_IDLOC3                           00002003
_IESO_OFF                         00003BFF
_IESO_ON                          00003FFF
MPASM 5.77                            P3.ASM   11-27-2020  2:09:01         PAGE 18


SYMBOL TABLE
  LABEL                             VALUE 

_INTOSC                           00003FFD
_INTOSCIO                         00003FFC
_INTRC_OSC_CLKOUT                 00003FFD
_INTRC_OSC_NOCLKOUT               00003FFC
_LP_OSC                           00003FF8
_LVP_OFF                          00002FFF
_LVP_ON                           00003FFF
_MCLRE_OFF                        00003FDF
_MCLRE_ON                         00003FFF
_PWRTE_OFF                        00003FFF
_PWRTE_ON                         00003FEF
_WDTE_OFF                         00003FF7
_WDTE_ON                          00003FFF
_WDT_OFF                          00003FF7
_WDT_ON                           00003FFF
_WRT_1FOURTH                      00003BFF
_WRT_256                          00003DFF
_WRT_HALF                         000039FF
_WRT_OFF                          00003FFF
_XT_OSC                           00003FF9
__16F887                          00000001

Errors   :     0
Warnings :     8 reported,     0 suppressed
Messages :    22 reported,     0 suppressed

